; Function Attrs: nounwind uwtable
define dso_local zeroext i1 @range_eq_internal(ptr noundef %0, ptr noundef %1, ptr noundef %2) local_unnamed_addr #0 {
  %4 = alloca %struct.RangeBound, align 8
  %5 = alloca %struct.RangeBound, align 8
  %6 = alloca %struct.RangeBound, align 8
  %7 = alloca %struct.RangeBound, align 8
  %8 = alloca i8, align 1
  %9 = alloca i8, align 1
  call void @llvm.lifetime.start.p0(i64 16, ptr nonnull %4) #14
  call void @llvm.lifetime.start.p0(i64 16, ptr nonnull %5) #14
  call void @llvm.lifetime.start.p0(i64 16, ptr nonnull %6) #14
  call void @llvm.lifetime.start.p0(i64 16, ptr nonnull %7) #14
  call void @llvm.lifetime.start.p0(i64 1, ptr nonnull %8) #14
  call void @llvm.lifetime.start.p0(i64 1, ptr nonnull %9) #14
  %10 = getelementptr inbounds nuw i8, ptr %1, i64 4
  %11 = load i32, ptr %10, align 4
  %12 = getelementptr inbounds nuw i8, ptr %2, i64 4
  %13 = load i32, ptr %12, align 4
  %.not = icmp eq i32 %11, %13
  br i1 %.not, label %17, label %14

14:                                               ; preds = %3
  %15 = tail call zeroext i1 @errstart_cold(i32 noundef 21, ptr noundef null) #16
  tail call void @llvm.assume(i1 %15)
  %16 = tail call i32 (ptr, ...) @errmsg_internal(ptr noundef nonnull @.str.2) #14
  tail call void @errfinish(ptr noundef nonnull @.str.1, i32 noundef 584, ptr noundef nonnull @__func__.range_eq_internal) #14
  unreachable

17:                                               ; preds = %3
  call void @range_deserialize(ptr noundef %0, ptr noundef nonnull %1, ptr noundef nonnull %4, ptr noundef nonnull %6, ptr noundef nonnull %8)
  call void @range_deserialize(ptr noundef %0, ptr noundef nonnull %2, ptr noundef nonnull %5, ptr noundef nonnull %7, ptr noundef nonnull %9)
  %18 = load i8, ptr %8, align 1, !range !7, !noundef !8
  %19 = trunc nuw i8 %18 to i1
  %.pre = load i8, ptr %9, align 1, !range !7
  br i1 %19, label %20, label %22

20:                                               ; preds = %17
  %21 = trunc nuw i8 %.pre to i1
  br i1 %21, label %range_cmp_bounds.exit.thread, label %22

22:                                               ; preds = %20, %17
  %.not9 = icmp eq i8 %18, %.pre
  br i1 %.not9, label %23, label %range_cmp_bounds.exit.thread

23:                                               ; preds = %22
  %24 = getelementptr inbounds nuw i8, ptr %4, i64 8
  %25 = load i8, ptr %24, align 8, !range !7, !noundef !8
  %26 = trunc nuw i8 %25 to i1
  %27 = getelementptr inbounds nuw i8, ptr %5, i64 8
  %28 = load i8, ptr %27, align 8, !range !7, !noundef !8
  %29 = trunc nuw i8 %28 to i1
  br i1 %26, label %30, label %36

30:                                               ; preds = %23
  %31 = getelementptr inbounds nuw i8, ptr %4, i64 10
  %32 = load i8, ptr %31, align 2, !range !7, !noundef !8
  %33 = getelementptr inbounds nuw i8, ptr %5, i64 10
  %34 = load i8, ptr %33, align 2, !range !7
  %35 = icmp eq i8 %32, %34
  %or.cond = select i1 %29, i1 %35, i1 false
  br i1 %or.cond, label %range_cmp_bounds.exit, label %range_cmp_bounds.exit.thread

36:                                               ; preds = %23
  br i1 %29, label %range_cmp_bounds.exit.thread, label %37

37:                                               ; preds = %36
  %38 = getelementptr inbounds nuw i8, ptr %0, i64 296
  %39 = getelementptr inbounds nuw i8, ptr %0, i64 292
  %40 = load i32, ptr %39, align 4
  %41 = load i64, ptr %4, align 8
  %42 = load i64, ptr %5, align 8
  %43 = tail call i64 @FunctionCall2Coll(ptr noundef nonnull %38, i32 noundef %40, i64 noundef %41, i64 noundef %42) #14
  %44 = and i64 %43, 4294967295
  %45 = icmp eq i64 %44, 0
  br i1 %45, label %46, label %range_cmp_bounds.exit.thread

46:                                               ; preds = %37
  %47 = getelementptr inbounds nuw i8, ptr %4, i64 9
  %48 = load i8, ptr %47, align 1, !range !7, !noundef !8
  %49 = trunc nuw i8 %48 to i1
  %50 = getelementptr inbounds nuw i8, ptr %5, i64 9
  %51 = load i8, ptr %50, align 1, !range !7, !noundef !8
  %52 = trunc nuw i8 %51 to i1
  br i1 %49, label %59, label %53

53:                                               ; preds = %46
  %54 = getelementptr inbounds nuw i8, ptr %4, i64 10
  %55 = load i8, ptr %54, align 2, !range !7, !noundef !8
  %56 = getelementptr inbounds nuw i8, ptr %5, i64 10
  %57 = load i8, ptr %56, align 2, !range !7
  %58 = icmp ne i8 %55, %57
  %or.cond21.not = select i1 %52, i1 true, i1 %58
  br i1 %or.cond21.not, label %range_cmp_bounds.exit.thread, label %range_cmp_bounds.exit

59:                                               ; preds = %46
  br i1 %52, label %range_cmp_bounds.exit, label %range_cmp_bounds.exit.thread

range_cmp_bounds.exit:                            ; preds = %53, %30, %59
  %60 = getelementptr inbounds nuw i8, ptr %6, i64 8
  %61 = load i8, ptr %60, align 8, !range !7, !noundef !8
  %62 = trunc nuw i8 %61 to i1
  %63 = getelementptr inbounds nuw i8, ptr %7, i64 8
  %64 = load i8, ptr %63, align 8, !range !7, !noundef !8
  %65 = trunc nuw i8 %64 to i1
  br i1 %62, label %66, label %73

66:                                               ; preds = %range_cmp_bounds.exit
  br i1 %65, label %67, label %range_cmp_bounds.exit.thread

67:                                               ; preds = %66
  %68 = getelementptr inbounds nuw i8, ptr %6, i64 10
  %69 = load i8, ptr %68, align 2, !range !7, !noundef !8
  %70 = getelementptr inbounds nuw i8, ptr %7, i64 10
  %71 = load i8, ptr %70, align 2, !range !7, !noundef !8
  %72 = icmp eq i8 %69, %71
  br label %range_cmp_bounds.exit.thread

73:                                               ; preds = %range_cmp_bounds.exit
  br i1 %65, label %range_cmp_bounds.exit.thread, label %74

74:                                               ; preds = %73
  %75 = getelementptr inbounds nuw i8, ptr %0, i64 296
  %76 = getelementptr inbounds nuw i8, ptr %0, i64 292
  %77 = load i32, ptr %76, align 4
  %78 = load i64, ptr %6, align 8
  %79 = load i64, ptr %7, align 8
  %80 = tail call i64 @FunctionCall2Coll(ptr noundef nonnull %75, i32 noundef %77, i64 noundef %78, i64 noundef %79) #14
  %81 = and i64 %80, 4294967295
  %82 = icmp eq i64 %81, 0
  br i1 %82, label %83, label %range_cmp_bounds.exit.thread

83:                                               ; preds = %74
  %84 = getelementptr inbounds nuw i8, ptr %6, i64 9
  %85 = load i8, ptr %84, align 1, !range !7, !noundef !8
  %86 = trunc nuw i8 %85 to i1
  %87 = getelementptr inbounds nuw i8, ptr %7, i64 9
  %88 = load i8, ptr %87, align 1, !range !7, !noundef !8
  %89 = trunc nuw i8 %88 to i1
  %brmerge = select i1 %86, i1 true, i1 %89
  %.mux = select i1 %86, i1 %89, i1 false
  br i1 %brmerge, label %range_cmp_bounds.exit.thread, label %90

90:                                               ; preds = %83
  %91 = getelementptr inbounds nuw i8, ptr %6, i64 10
  %92 = load i8, ptr %91, align 2, !range !7, !noundef !8
  %93 = getelementptr inbounds nuw i8, ptr %7, i64 10
  %94 = load i8, ptr %93, align 2, !range !7, !noundef !8
  %95 = icmp eq i8 %92, %94
  br label %range_cmp_bounds.exit.thread

range_cmp_bounds.exit.thread:                     ; preds = %83, %90, %67, %74, %66, %73, %59, %53, %36, %30, %37, %22, %20
  %.0 = phi i1 [ true, %20 ], [ false, %22 ], [ false, %37 ], [ false, %30 ], [ false, %36 ], [ false, %53 ], [ false, %59 ], [ false, %74 ], [ %72, %67 ], [ false, %66 ], [ false, %73 ], [ %95, %90 ], [ %.mux, %83 ]
  call void @llvm.lifetime.end.p0(i64 1, ptr nonnull %9) #14
  call void @llvm.lifetime.end.p0(i64 1, ptr nonnull %8) #14
  call void @llvm.lifetime.end.p0(i64 16, ptr nonnull %7) #14
  call void @llvm.lifetime.end.p0(i64 16, ptr nonnull %6) #14
  call void @llvm.lifetime.end.p0(i64 16, ptr nonnull %5) #14
  call void @llvm.lifetime.end.p0(i64 16, ptr nonnull %4) #14
  ret i1 %.0
}